; Function Attrs: nounwind uwtable
define internal fastcc void @PrintFinalStats(ptr noundef %0, i32 noundef range(i32 -2147483648, 6) %1, double noundef %2) unnamed_addr #0 {
  %4 = alloca i64, align 8
  %5 = alloca i64, align 8
  %6 = alloca i64, align 8
  %7 = alloca i64, align 8
  %8 = alloca i64, align 8
  %9 = alloca i64, align 8
  %10 = alloca i64, align 8
  %11 = alloca i64, align 8
  %12 = alloca i64, align 8
  %13 = alloca i64, align 8
  %14 = alloca i64, align 8
  %15 = alloca i64, align 8
  call void @llvm.lifetime.start.p0(i64 8, ptr nonnull %4) #9
  call void @llvm.lifetime.start.p0(i64 8, ptr nonnull %5) #9
  call void @llvm.lifetime.start.p0(i64 8, ptr nonnull %6) #9
  call void @llvm.lifetime.start.p0(i64 8, ptr nonnull %7) #9
  call void @llvm.lifetime.start.p0(i64 8, ptr nonnull %8) #9
  call void @llvm.lifetime.start.p0(i64 8, ptr nonnull %9) #9
  call void @llvm.lifetime.start.p0(i64 8, ptr nonnull %10) #9
  call void @llvm.lifetime.start.p0(i64 8, ptr nonnull %11) #9
  call void @llvm.lifetime.start.p0(i64 8, ptr nonnull %12) #9
  call void @llvm.lifetime.start.p0(i64 8, ptr nonnull %13) #9
  call void @llvm.lifetime.start.p0(i64 8, ptr nonnull %14) #9
  call void @llvm.lifetime.start.p0(i64 8, ptr nonnull %15) #9
  %16 = call i32 @CVodeGetWorkSpace(ptr noundef %0, ptr noundef nonnull %4, ptr noundef nonnull %5) #9
  %17 = icmp slt i32 %16, 0
  br i1 %17, label %18, label %check_retval.exit

18:                                               ; preds = %3
  %19 = load ptr, ptr @stderr, align 8, !tbaa !13
  %20 = call i32 (ptr, ptr, ...) @fprintf(ptr noundef %19, ptr noundef nonnull @.str.11, ptr noundef nonnull @.str.44, i32 noundef %16) #10
  br label %check_retval.exit

check_retval.exit:                                ; preds = %3, %18
  %21 = call i32 @CVodeGetNumSteps(ptr noundef %0, ptr noundef nonnull %8) #9
  %22 = icmp slt i32 %21, 0
  br i1 %22, label %23, label %check_retval.exit16

23:                                               ; preds = %check_retval.exit
  %24 = load ptr, ptr @stderr, align 8, !tbaa !13
  %25 = call i32 (ptr, ptr, ...) @fprintf(ptr noundef %24, ptr noundef nonnull @.str.11, ptr noundef nonnull @.str.45, i32 noundef %21) #10
  br label %check_retval.exit16

check_retval.exit16:                              ; preds = %check_retval.exit, %23
  %26 = call i32 @CVodeGetNumRhsEvals(ptr noundef %0, ptr noundef nonnull %9) #9
  %27 = icmp slt i32 %26, 0
  br i1 %27, label %28, label %check_retval.exit18

28:                                               ; preds = %check_retval.exit16
  %29 = load ptr, ptr @stderr, align 8, !tbaa !13
  %30 = call i32 (ptr, ptr, ...) @fprintf(ptr noundef %29, ptr noundef nonnull @.str.11, ptr noundef nonnull @.str.46, i32 noundef %26) #10
  br label %check_retval.exit18

check_retval.exit18:                              ; preds = %check_retval.exit16, %28
  %31 = call i32 @CVodeGetNumLinSolvSetups(ptr noundef %0, ptr noundef nonnull %10) #9
  %32 = icmp slt i32 %31, 0
  br i1 %32, label %33, label %check_retval.exit20

33:                                               ; preds = %check_retval.exit18
  %34 = load ptr, ptr @stderr, align 8, !tbaa !13
  %35 = call i32 (ptr, ptr, ...) @fprintf(ptr noundef %34, ptr noundef nonnull @.str.11, ptr noundef nonnull @.str.47, i32 noundef %31) #10
  br label %check_retval.exit20

check_retval.exit20:                              ; preds = %check_retval.exit18, %33
  %36 = call i32 @CVodeGetNumErrTestFails(ptr noundef %0, ptr noundef nonnull %13) #9
  %37 = icmp slt i32 %36, 0
  br i1 %37, label %38, label %check_retval.exit22

38:                                               ; preds = %check_retval.exit20
  %39 = load ptr, ptr @stderr, align 8, !tbaa !13
  %40 = call i32 (ptr, ptr, ...) @fprintf(ptr noundef %39, ptr noundef nonnull @.str.11, ptr noundef nonnull @.str.48, i32 noundef %36) #10
  br label %check_retval.exit22

check_retval.exit22:                              ; preds = %check_retval.exit20, %38
  %41 = call i32 @CVodeGetNumNonlinSolvIters(ptr noundef %0, ptr noundef nonnull %11) #9
  %42 = icmp slt i32 %41, 0
  br i1 %42, label %43, label %check_retval.exit24

43:                                               ; preds = %check_retval.exit22
  %44 = load ptr, ptr @stderr, align 8, !tbaa !13
  %45 = call i32 (ptr, ptr, ...) @fprintf(ptr noundef %44, ptr noundef nonnull @.str.11, ptr noundef nonnull @.str.49, i32 noundef %41) #10
  br label %check_retval.exit24

check_retval.exit24:                              ; preds = %check_retval.exit22, %43
  %46 = call i32 @CVodeGetNumNonlinSolvConvFails(ptr noundef %0, ptr noundef nonnull %12) #9
  %47 = icmp slt i32 %46, 0
  br i1 %47, label %48, label %check_retval.exit26

48:                                               ; preds = %check_retval.exit24
  %49 = load ptr, ptr @stderr, align 8, !tbaa !13
  %50 = call i32 (ptr, ptr, ...) @fprintf(ptr noundef %49, ptr noundef nonnull @.str.11, ptr noundef nonnull @.str.50, i32 noundef %46) #10
  br label %check_retval.exit26

check_retval.exit26:                              ; preds = %check_retval.exit24, %48
  %puts = call i32 @puts(ptr nonnull dereferenceable(1) @str.14)
  %51 = load i64, ptr %4, align 8, !tbaa !29
  %52 = call i32 (ptr, ...) @printf(ptr noundef nonnull dereferenceable(1) @.str.52, i64 noundef %51)
  %53 = load i64, ptr %5, align 8, !tbaa !29
  %54 = call i32 (ptr, ...) @printf(ptr noundef nonnull dereferenceable(1) @.str.53, i64 noundef %53)
  %55 = load i64, ptr %8, align 8, !tbaa !29
  %56 = call i32 (ptr, ...) @printf(ptr noundef nonnull dereferenceable(1) @.str.54, i64 noundef %55)
  %57 = load i64, ptr %9, align 8, !tbaa !29
  %58 = call i32 (ptr, ...) @printf(ptr noundef nonnull dereferenceable(1) @.str.55, i64 noundef %57)
  %59 = load i64, ptr %10, align 8, !tbaa !29
  %60 = call i32 (ptr, ...) @printf(ptr noundef nonnull dereferenceable(1) @.str.56, i64 noundef %59)
  %61 = load i64, ptr %11, align 8, !tbaa !29
  %62 = call i32 (ptr, ...) @printf(ptr noundef nonnull dereferenceable(1) @.str.57, i64 noundef %61)
  %63 = load i64, ptr %12, align 8, !tbaa !29
  %64 = call i32 (ptr, ...) @printf(ptr noundef nonnull dereferenceable(1) @.str.58, i64 noundef %63)
  %65 = load i64, ptr %13, align 8, !tbaa !29
  %66 = call i32 (ptr, ...) @printf(ptr noundef nonnull dereferenceable(1) @.str.59, i64 noundef %65)
  switch i32 %1, label %67 [
    i32 0, label %103
    i32 3, label %83
  ]

67:                                               ; preds = %check_retval.exit26
  %68 = call i32 @CVodeGetNumJacEvals(ptr noundef %0, ptr noundef nonnull %14) #9
  %69 = icmp slt i32 %68, 0
  br i1 %69, label %70, label %check_retval.exit28

70:                                               ; preds = %67
  %71 = load ptr, ptr @stderr, align 8, !tbaa !13
  %72 = call i32 (ptr, ptr, ...) @fprintf(ptr noundef %71, ptr noundef nonnull @.str.11, ptr noundef nonnull @.str.60, i32 noundef %68) #10
  br label %check_retval.exit28

check_retval.exit28:                              ; preds = %67, %70
  %73 = call i32 @CVodeGetNumLinRhsEvals(ptr noundef %0, ptr noundef nonnull %15) #9
  %74 = icmp slt i32 %73, 0
  br i1 %74, label %75, label %check_retval.exit30

75:                                               ; preds = %check_retval.exit28
  %76 = load ptr, ptr @stderr, align 8, !tbaa !13
  %77 = call i32 (ptr, ptr, ...) @fprintf(ptr noundef %76, ptr noundef nonnull @.str.11, ptr noundef nonnull @.str.61, i32 noundef %73) #10
  br label %check_retval.exit30

check_retval.exit30:                              ; preds = %check_retval.exit28, %75
  %78 = call i32 @CVodeGetLinWorkSpace(ptr noundef %0, ptr noundef nonnull %6, ptr noundef nonnull %7) #9
  %79 = icmp slt i32 %78, 0
  br i1 %79, label %80, label %check_retval.exit32

80:                                               ; preds = %check_retval.exit30
  %81 = load ptr, ptr @stderr, align 8, !tbaa !13
  %82 = call i32 (ptr, ptr, ...) @fprintf(ptr noundef %81, ptr noundef nonnull @.str.11, ptr noundef nonnull @.str.62, i32 noundef %78) #10
  br label %check_retval.exit32

83:                                               ; preds = %check_retval.exit26
  %84 = load i64, ptr %10, align 8, !tbaa !29
  store i64 %84, ptr %14, align 8, !tbaa !29
  %85 = call i32 @CVDiagGetNumRhsEvals(ptr noundef %0, ptr noundef nonnull %15) #9
  %86 = icmp slt i32 %85, 0
  br i1 %86, label %87, label %check_retval.exit34

87:                                               ; preds = %83
  %88 = load ptr, ptr @stderr, align 8, !tbaa !13
  %89 = call i32 (ptr, ptr, ...) @fprintf(ptr noundef %88, ptr noundef nonnull @.str.11, ptr noundef nonnull @.str.63, i32 noundef %85) #10
  br label %check_retval.exit34

check_retval.exit34:                              ; preds = %83, %87
  %90 = call i32 @CVDiagGetWorkSpace(ptr noundef %0, ptr noundef nonnull %6, ptr noundef nonnull %7) #9
  %91 = icmp slt i32 %90, 0
  br i1 %91, label %92, label %check_retval.exit32

92:                                               ; preds = %check_retval.exit34
  %93 = load ptr, ptr @stderr, align 8, !tbaa !13
  %94 = call i32 (ptr, ptr, ...) @fprintf(ptr noundef %93, ptr noundef nonnull @.str.11, ptr noundef nonnull @.str.64, i32 noundef %90) #10
  br label %check_retval.exit32

check_retval.exit32:                              ; preds = %92, %check_retval.exit34, %80, %check_retval.exit30
  %95 = load i64, ptr %6, align 8, !tbaa !29
  %96 = call i32 (ptr, ...) @printf(ptr noundef nonnull dereferenceable(1) @.str.65, i64 noundef %95)
  %97 = load i64, ptr %7, align 8, !tbaa !29
  %98 = call i32 (ptr, ...) @printf(ptr noundef nonnull dereferenceable(1) @.str.66, i64 noundef %97)
  %99 = load i64, ptr %14, align 8, !tbaa !29
  %100 = call i32 (ptr, ...) @printf(ptr noundef nonnull dereferenceable(1) @.str.67, i64 noundef %99)
  %101 = load i64, ptr %15, align 8, !tbaa !29
  %102 = call i32 (ptr, ...) @printf(ptr noundef nonnull dereferenceable(1) @.str.68, i64 noundef %101)
  br label %103

103:                                              ; preds = %check_retval.exit26, %check_retval.exit32
  %104 = call i32 (ptr, ...) @printf(ptr noundef nonnull dereferenceable(1) @.str.69, double noundef %2)
  call void @llvm.lifetime.end.p0(i64 8, ptr nonnull %15) #9
  call void @llvm.lifetime.end.p0(i64 8, ptr nonnull %14) #9
  call void @llvm.lifetime.end.p0(i64 8, ptr nonnull %13) #9
  call void @llvm.lifetime.end.p0(i64 8, ptr nonnull %12) #9
  call void @llvm.lifetime.end.p0(i64 8, ptr nonnull %11) #9
  call void @llvm.lifetime.end.p0(i64 8, ptr nonnull %10) #9
  call void @llvm.lifetime.end.p0(i64 8, ptr nonnull %9) #9
  call void @llvm.lifetime.end.p0(i64 8, ptr nonnull %8) #9
  call void @llvm.lifetime.end.p0(i64 8, ptr nonnull %7) #9
  call void @llvm.lifetime.end.p0(i64 8, ptr nonnull %6) #9
  call void @llvm.lifetime.end.p0(i64 8, ptr nonnull %5) #9
  call void @llvm.lifetime.end.p0(i64 8, ptr nonnull %4) #9
  ret void
}